target datalayout = "e-m:e-p270:32:32-p271:32:32-p272:64:64-i64:64-i128:128-f80:128-n8:16:32:64-S128"
target triple = "x86_64-pc-linux-gnu"

%class.ErrorHandler = type <{ i32, i32, i8, i8, i8, i8, i8, i8, [2 x i8] }>
%class.RawRead = type { %class.Array, ptr, i64, i64, ptr }
%class.Array = type { ptr, i64, i64, i64 }

@ErrHandler = external global %class.ErrorHandler, align 4

; Function Attrs: inlinehint mustprogress nounwind uwtable
define linkonce_odr noundef nonnull align 1 dereferenceable(1) ptr @_ZNK5ArrayIhEixEm(ptr noundef nonnull align 8 dereferenceable(32) %0, i64 noundef %1) #3 comdat align 2 {
  %3 = alloca ptr, align 8
  %4 = alloca i64, align 8
  store ptr %0, ptr %3, align 8, !tbaa !15
  store i64 %1, ptr %4, align 8, !tbaa !23
  %5 = load ptr, ptr %3, align 8
  %6 = getelementptr inbounds nuw %class.Array, ptr %5, i32 0, i32 0
  %7 = load ptr, ptr %6, align 8, !tbaa !20
  %8 = load i64, ptr %4, align 8, !tbaa !23
  %9 = getelementptr inbounds nuw i8, ptr %7, i64 %8
  ret ptr %9
}

; Function Attrs: mustprogress uwtable
define linkonce_odr void @_ZN5ArrayIhE3AddEm(ptr noundef nonnull align 8 dereferenceable(32) %0, i64 noundef %1) #0 comdat align 2 {
  %3 = alloca ptr, align 8
  %4 = alloca i64, align 8
  %5 = alloca i64, align 8
  %6 = alloca i64, align 8
  %7 = alloca ptr, align 8
  store ptr %0, ptr %3, align 8, !tbaa !15
  store i64 %1, ptr %4, align 8, !tbaa !23
  %8 = load ptr, ptr %3, align 8
  %9 = load i64, ptr %4, align 8, !tbaa !23
  %10 = getelementptr inbounds nuw %class.Array, ptr %8, i32 0, i32 1
  %11 = load i64, ptr %10, align 8, !tbaa !22
  %12 = add i64 %11, %9
  store i64 %12, ptr %10, align 8, !tbaa !22
  %13 = getelementptr inbounds nuw %class.Array, ptr %8, i32 0, i32 1
  %14 = load i64, ptr %13, align 8, !tbaa !22
  %15 = getelementptr inbounds nuw %class.Array, ptr %8, i32 0, i32 2
  %16 = load i64, ptr %15, align 8, !tbaa !26
  %17 = icmp ugt i64 %14, %16
  br i1 %17, label %18, label %63

18:                                               ; preds = %2
  %19 = getelementptr inbounds nuw %class.Array, ptr %8, i32 0, i32 3
  %20 = load i64, ptr %19, align 8, !tbaa !27
  %21 = icmp ne i64 %20, 0
  br i1 %21, label %22, label %31

22:                                               ; preds = %18
  %23 = getelementptr inbounds nuw %class.Array, ptr %8, i32 0, i32 1
  %24 = load i64, ptr %23, align 8, !tbaa !22
  %25 = getelementptr inbounds nuw %class.Array, ptr %8, i32 0, i32 3
  %26 = load i64, ptr %25, align 8, !tbaa !27
  %27 = icmp ugt i64 %24, %26
  br i1 %27, label %28, label %31

28:                                               ; preds = %22
  %29 = getelementptr inbounds nuw %class.Array, ptr %8, i32 0, i32 3
  %30 = load i64, ptr %29, align 8, !tbaa !27
  call void (ptr, ptr, ...) @_ZN12ErrorHandler13GeneralErrMsgEPKwz(ptr noundef nonnull align 4 dereferenceable(14) @ErrHandler, ptr noundef @.str, i64 noundef %30)
  call void @_ZN12ErrorHandler11MemoryErrorEv(ptr noundef nonnull align 4 dereferenceable(14) @ErrHandler)
  br label %31

31:                                               ; preds = %28, %22, %18
  call void @llvm.lifetime.start.p0(i64 8, ptr %5) #9
  %32 = getelementptr inbounds nuw %class.Array, ptr %8, i32 0, i32 2
  %33 = load i64, ptr %32, align 8, !tbaa !26
  %34 = getelementptr inbounds nuw %class.Array, ptr %8, i32 0, i32 2
  %35 = load i64, ptr %34, align 8, !tbaa !26
  %36 = udiv i64 %35, 4
  %37 = add i64 %33, %36
  %38 = add i64 %37, 32
  store i64 %38, ptr %5, align 8, !tbaa !23
  call void @llvm.lifetime.start.p0(i64 8, ptr %6) #9
  %39 = getelementptr inbounds nuw %class.Array, ptr %8, i32 0, i32 1
  %40 = load i64, ptr %39, align 8, !tbaa !22
  %41 = load i64, ptr %5, align 8, !tbaa !23
  %42 = icmp ugt i64 %40, %41
  br i1 %42, label %43, label %46

43:                                               ; preds = %31
  %44 = getelementptr inbounds nuw %class.Array, ptr %8, i32 0, i32 1
  %45 = load i64, ptr %44, align 8, !tbaa !22
  br label %48

46:                                               ; preds = %31
  %47 = load i64, ptr %5, align 8, !tbaa !23
  br label %48

48:                                               ; preds = %46, %43
  %49 = phi i64 [ %45, %43 ], [ %47, %46 ]
  store i64 %49, ptr %6, align 8, !tbaa !23
  call void @llvm.lifetime.start.p0(i64 8, ptr %7) #9
  %50 = getelementptr inbounds nuw %class.Array, ptr %8, i32 0, i32 0
  %51 = load ptr, ptr %50, align 8, !tbaa !20
  %52 = load i64, ptr %6, align 8, !tbaa !23
  %53 = mul i64 %52, 1
  %54 = call ptr @realloc(ptr noundef %51, i64 noundef %53) #10
  store ptr %54, ptr %7, align 8, !tbaa !28
  %55 = load ptr, ptr %7, align 8, !tbaa !28
  %56 = icmp eq ptr %55, null
  br i1 %56, label %57, label %58

57:                                               ; preds = %48
  call void @_ZN12ErrorHandler11MemoryErrorEv(ptr noundef nonnull align 4 dereferenceable(14) @ErrHandler)
  br label %58

58:                                               ; preds = %57, %48
  %59 = load ptr, ptr %7, align 8, !tbaa !28
  %60 = getelementptr inbounds nuw %class.Array, ptr %8, i32 0, i32 0
  store ptr %59, ptr %60, align 8, !tbaa !20
  %61 = load i64, ptr %6, align 8, !tbaa !23
  %62 = getelementptr inbounds nuw %class.Array, ptr %8, i32 0, i32 2
  store i64 %61, ptr %62, align 8, !tbaa !26
  call void @llvm.lifetime.end.p0(i64 8, ptr %7) #9
  call void @llvm.lifetime.end.p0(i64 8, ptr %6) #9
  call void @llvm.lifetime.end.p0(i64 8, ptr %5) #9
  br label %63

63:                                               ; preds = %58, %2
  ret void
}

; Function Attrs: inlinehint mustprogress nounwind uwtable
define linkonce_odr noundef i64 @_ZN5ArrayIhE4SizeEv(ptr noundef nonnull align 8 dereferenceable(32) %0) #3 comdat align 2 {
  %2 = alloca ptr, align 8
  store ptr %0, ptr %2, align 8, !tbaa !15
  %3 = load ptr, ptr %2, align 8
  %4 = getelementptr inbounds nuw %class.Array, ptr %3, i32 0, i32 1
  %5 = load i64, ptr %4, align 8, !tbaa !22
  ret i64 %5
}

; Function Attrs: mustprogress uwtable
define noundef i64 @_ZN7RawRead4ReadEm(ptr noundef nonnull align 8 dereferenceable(64) %0, i64 noundef %1) #0 align 2 {
  %3 = alloca ptr, align 8
  %4 = alloca i64, align 8
  %5 = alloca i64, align 8
  %6 = alloca i64, align 8
  %7 = alloca i64, align 8
  %8 = alloca i64, align 8
  %9 = alloca i64, align 8
  store ptr %0, ptr %3, align 8, !tbaa !3
  store i64 %1, ptr %4, align 8, !tbaa !23
  %10 = load ptr, ptr %3, align 8
  call void @llvm.lifetime.start.p0(i64 8, ptr %5) #9
  store i64 0, ptr %5, align 8, !tbaa !23
  %11 = getelementptr inbounds nuw %class.RawRead, ptr %10, i32 0, i32 4
  %12 = load ptr, ptr %11, align 8, !tbaa !19
  %13 = icmp ne ptr %12, null
  br i1 %13, label %14, label %70

14:                                               ; preds = %2
  call void @llvm.lifetime.start.p0(i64 8, ptr %6) #9
  %15 = getelementptr inbounds nuw %class.RawRead, ptr %10, i32 0, i32 0
  %16 = call noundef i64 @_ZN5ArrayIhE4SizeEv(ptr noundef nonnull align 8 dereferenceable(32) %15)
  store i64 %16, ptr %6, align 8, !tbaa !23
  call void @llvm.lifetime.start.p0(i64 8, ptr %7) #9
  %17 = load i64, ptr %6, align 8, !tbaa !23
  %18 = getelementptr inbounds nuw %class.RawRead, ptr %10, i32 0, i32 2
  %19 = load i64, ptr %18, align 8, !tbaa !18
  %20 = sub i64 %17, %19
  store i64 %20, ptr %7, align 8, !tbaa !23
  %21 = load i64, ptr %4, align 8, !tbaa !23
  %22 = load i64, ptr %7, align 8, !tbaa !23
  %23 = icmp ugt i64 %21, %22
  br i1 %23, label %24, label %63

24:                                               ; preds = %14
  call void @llvm.lifetime.start.p0(i64 8, ptr %8) #9
  %25 = load i64, ptr %4, align 8, !tbaa !23
  %26 = load i64, ptr %7, align 8, !tbaa !23
  %27 = sub i64 %25, %26
  store i64 %27, ptr %8, align 8, !tbaa !23
  call void @llvm.lifetime.start.p0(i64 8, ptr %9) #9
  %28 = load i64, ptr %8, align 8, !tbaa !23
  %29 = load i64, ptr %8, align 8, !tbaa !23
  %30 = xor i64 %29, -1
  %31 = add i64 %30, 1
  %32 = and i64 %31, 15
  %33 = add i64 %28, %32
  store i64 %33, ptr %9, align 8, !tbaa !23
  %34 = getelementptr inbounds nuw %class.RawRead, ptr %10, i32 0, i32 0
  %35 = load i64, ptr %9, align 8, !tbaa !23
  call void @_ZN5ArrayIhE3AddEm(ptr noundef nonnull align 8 dereferenceable(32) %34, i64 noundef %35)
  %36 = getelementptr inbounds nuw %class.RawRead, ptr %10, i32 0, i32 1
  %37 = load ptr, ptr %36, align 8, !tbaa !8
  %38 = getelementptr inbounds nuw %class.RawRead, ptr %10, i32 0, i32 0
  %39 = load i64, ptr %6, align 8, !tbaa !23
  %40 = call noundef nonnull align 1 dereferenceable(1) ptr @_ZNK5ArrayIhEixEm(ptr noundef nonnull align 8 dereferenceable(32) %38, i64 noundef %39)
  %41 = load i64, ptr %9, align 8, !tbaa !23
  %42 = load ptr, ptr %37, align 8, !tbaa !24
  %43 = getelementptr inbounds ptr, ptr %42, i64 4
  %44 = load ptr, ptr %43, align 8
  %45 = call noundef i32 %44(ptr noundef nonnull align 8 dereferenceable(8256) %37, ptr noundef %40, i64 noundef %41)
  %46 = sext i32 %45 to i64
  store i64 %46, ptr %5, align 8, !tbaa !23
  %47 = getelementptr inbounds nuw %class.RawRead, ptr %10, i32 0, i32 4
  %48 = load ptr, ptr %47, align 8, !tbaa !19
  %49 = getelementptr inbounds nuw %class.RawRead, ptr %10, i32 0, i32 0
  %50 = load i64, ptr %6, align 8, !tbaa !23
  %51 = call noundef nonnull align 1 dereferenceable(1) ptr @_ZNK5ArrayIhEixEm(ptr noundef nonnull align 8 dereferenceable(32) %49, i64 noundef %50)
  %52 = load i64, ptr %9, align 8, !tbaa !23
  call void @_ZN9CryptData12DecryptBlockEPhm(ptr noundef nonnull align 8 dereferenceable(2516) %48, ptr noundef %51, i64 noundef %52)
  %53 = load i64, ptr %5, align 8, !tbaa !23
  %54 = icmp eq i64 %53, 0
  br i1 %54, label %55, label %56

55:                                               ; preds = %24
  br label %58

56:                                               ; preds = %24
  %57 = load i64, ptr %4, align 8, !tbaa !23
  br label %58

58:                                               ; preds = %56, %55
  %59 = phi i64 [ 0, %55 ], [ %57, %56 ]
  %60 = getelementptr inbounds nuw %class.RawRead, ptr %10, i32 0, i32 2
  %61 = load i64, ptr %60, align 8, !tbaa !18
  %62 = add i64 %61, %59
  store i64 %62, ptr %60, align 8, !tbaa !18
  call void @llvm.lifetime.end.p0(i64 8, ptr %9) #9
  call void @llvm.lifetime.end.p0(i64 8, ptr %8) #9
  br label %69

63:                                               ; preds = %14
  %64 = load i64, ptr %4, align 8, !tbaa !23
  store i64 %64, ptr %5, align 8, !tbaa !23
  %65 = load i64, ptr %4, align 8, !tbaa !23
  %66 = getelementptr inbounds nuw %class.RawRead, ptr %10, i32 0, i32 2
  %67 = load i64, ptr %66, align 8, !tbaa !18
  %68 = add i64 %67, %65
  store i64 %68, ptr %66, align 8, !tbaa !18
  br label %69

69:                                               ; preds = %63, %58
  call void @llvm.lifetime.end.p0(i64 8, ptr %7) #9
  call void @llvm.lifetime.end.p0(i64 8, ptr %6) #9
  br label %93

70:                                               ; preds = %2
  %71 = load i64, ptr %4, align 8, !tbaa !23
  %72 = icmp ne i64 %71, 0
  br i1 %72, label %73, label %92

73:                                               ; preds = %70
  %74 = getelementptr inbounds nuw %class.RawRead, ptr %10, i32 0, i32 0
  %75 = load i64, ptr %4, align 8, !tbaa !23
  call void @_ZN5ArrayIhE3AddEm(ptr noundef nonnull align 8 dereferenceable(32) %74, i64 noundef %75)
  %76 = getelementptr inbounds nuw %class.RawRead, ptr %10, i32 0, i32 1
  %77 = load ptr, ptr %76, align 8, !tbaa !8
  %78 = getelementptr inbounds nuw %class.RawRead, ptr %10, i32 0, i32 0
  %79 = getelementptr inbounds nuw %class.RawRead, ptr %10, i32 0, i32 2
  %80 = load i64, ptr %79, align 8, !tbaa !18
  %81 = call noundef nonnull align 1 dereferenceable(1) ptr @_ZNK5ArrayIhEixEm(ptr noundef nonnull align 8 dereferenceable(32) %78, i64 noundef %80)
  %82 = load i64, ptr %4, align 8, !tbaa !23
  %83 = load ptr, ptr %77, align 8, !tbaa !24
  %84 = getelementptr inbounds ptr, ptr %83, i64 4
  %85 = load ptr, ptr %84, align 8
  %86 = call noundef i32 %85(ptr noundef nonnull align 8 dereferenceable(8256) %77, ptr noundef %81, i64 noundef %82)
  %87 = sext i32 %86 to i64
  store i64 %87, ptr %5, align 8, !tbaa !23
  %88 = load i64, ptr %5, align 8, !tbaa !23
  %89 = getelementptr inbounds nuw %class.RawRead, ptr %10, i32 0, i32 2
  %90 = load i64, ptr %89, align 8, !tbaa !18
  %91 = add i64 %90, %88
  store i64 %91, ptr %89, align 8, !tbaa !18
  br label %92

92:                                               ; preds = %73, %70
  br label %93

93:                                               ; preds = %92, %69
  %94 = load i64, ptr %5, align 8, !tbaa !23
  call void @llvm.lifetime.end.p0(i64 8, ptr %5) #9
  ret i64 %94
}