; Function Attrs: mustprogress uwtable
define noundef i64 @_ZN7RawRead4ReadEm(ptr noundef nonnull align 8 captures(none) dereferenceable(64) %0, i64 noundef %1) local_unnamed_addr #1 align 2 {
  %3 = getelementptr inbounds nuw i8, ptr %0, i64 56
  %4 = load ptr, ptr %3, align 8, !tbaa !14
  %.not = icmp eq ptr %4, null
  br i1 %.not, label %56, label %5

5:                                                ; preds = %2
  %6 = getelementptr inbounds nuw i8, ptr %0, i64 8
  %7 = load i64, ptr %6, align 8, !tbaa !3
  %8 = getelementptr inbounds nuw i8, ptr %0, i64 40
  %9 = load i64, ptr %8, align 8, !tbaa !15
  %10 = sub i64 %7, %9
  %11 = icmp ugt i64 %1, %10
  br i1 %11, label %12, label %53

12:                                               ; preds = %5
  %13 = sub nuw i64 %1, %10
  %14 = sub i64 0, %13
  %15 = and i64 %14, 15
  %16 = add i64 %15, %13
  %17 = add i64 %16, %7
  store i64 %17, ptr %6, align 8, !tbaa !3
  %18 = getelementptr inbounds nuw i8, ptr %0, i64 16
  %19 = load i64, ptr %18, align 8, !tbaa !16
  %20 = icmp ugt i64 %17, %19
  br i1 %20, label %21, label %._ZN5ArrayIhE3AddEm.exit_crit_edge

._ZN5ArrayIhE3AddEm.exit_crit_edge:               ; preds = %12
  %.pre = load ptr, ptr %0, align 8, !tbaa !17
  br label %_ZN5ArrayIhE3AddEm.exit

21:                                               ; preds = %12
  %22 = getelementptr inbounds nuw i8, ptr %0, i64 24
  %23 = load i64, ptr %22, align 8, !tbaa !18
  %.not.i = icmp ne i64 %23, 0
  %24 = icmp ugt i64 %17, %23
  %or.cond.i = and i1 %.not.i, %24
  br i1 %or.cond.i, label %25, label %26

25:                                               ; preds = %21
  tail call void (ptr, ptr, ...) @_ZN12ErrorHandler13GeneralErrMsgEPKwz(ptr noundef nonnull align 4 dereferenceable(14) @ErrHandler, ptr noundef nonnull @.str, i64 noundef %23)
  tail call void @_ZN12ErrorHandler11MemoryErrorEv(ptr noundef nonnull align 4 dereferenceable(14) @ErrHandler)
  %.pre.i = load i64, ptr %18, align 8, !tbaa !16
  %.pre10.i = load i64, ptr %6, align 8, !tbaa !3
  br label %26

26:                                               ; preds = %25, %21
  %27 = phi i64 [ %.pre10.i, %25 ], [ %17, %21 ]
  %28 = phi i64 [ %.pre.i, %25 ], [ %19, %21 ]
  %29 = lshr i64 %28, 2
  %30 = add i64 %28, 32
  %31 = add i64 %30, %29
  %..i = tail call i64 @llvm.umax.i64(i64 %27, i64 %31)
  %32 = load ptr, ptr %0, align 8, !tbaa !17
  %33 = tail call ptr @realloc(ptr noundef %32, i64 noundef %..i) #12
  %34 = icmp eq ptr %33, null
  br i1 %34, label %35, label %36

35:                                               ; preds = %26
  tail call void @_ZN12ErrorHandler11MemoryErrorEv(ptr noundef nonnull align 4 dereferenceable(14) @ErrHandler)
  br label %36

36:                                               ; preds = %35, %26
  store ptr %33, ptr %0, align 8, !tbaa !17
  store i64 %..i, ptr %18, align 8, !tbaa !16
  br label %_ZN5ArrayIhE3AddEm.exit

_ZN5ArrayIhE3AddEm.exit:                          ; preds = %._ZN5ArrayIhE3AddEm.exit_crit_edge, %36
  %37 = phi ptr [ %.pre, %._ZN5ArrayIhE3AddEm.exit_crit_edge ], [ %33, %36 ]
  %38 = getelementptr inbounds nuw i8, ptr %0, i64 32
  %39 = load ptr, ptr %38, align 8, !tbaa !10
  %40 = getelementptr inbounds nuw i8, ptr %37, i64 %7
  %41 = load ptr, ptr %39, align 8, !tbaa !19
  %42 = getelementptr inbounds nuw i8, ptr %41, i64 32
  %43 = load ptr, ptr %42, align 8
  %44 = tail call noundef i32 %43(ptr noundef nonnull align 8 dereferenceable(8256) %39, ptr noundef nonnull %40, i64 noundef %16)
  %45 = sext i32 %44 to i64
  %46 = load ptr, ptr %3, align 8, !tbaa !14
  %47 = load ptr, ptr %0, align 8, !tbaa !17
  %48 = getelementptr inbounds nuw i8, ptr %47, i64 %7
  tail call void @_ZN9CryptData12DecryptBlockEPhm(ptr noundef nonnull align 8 dereferenceable(2516) %46, ptr noundef nonnull %48, i64 noundef %16)
  %49 = icmp eq i32 %44, 0
  %50 = select i1 %49, i64 0, i64 %1
  %51 = load i64, ptr %8, align 8, !tbaa !15
  %52 = add i64 %51, %50
  br label %55

53:                                               ; preds = %5
  %54 = add i64 %9, %1
  br label %55

55:                                               ; preds = %53, %_ZN5ArrayIhE3AddEm.exit
  %storemerge = phi i64 [ %54, %53 ], [ %52, %_ZN5ArrayIhE3AddEm.exit ]
  %.0 = phi i64 [ %1, %53 ], [ %45, %_ZN5ArrayIhE3AddEm.exit ]
  store i64 %storemerge, ptr %8, align 8, !tbaa !15
  br label %93

56:                                               ; preds = %2
  %.not24 = icmp eq i64 %1, 0
  br i1 %.not24, label %93, label %57

57:                                               ; preds = %56
  %58 = getelementptr inbounds nuw i8, ptr %0, i64 8
  %59 = load i64, ptr %58, align 8, !tbaa !3
  %60 = add i64 %59, %1
  store i64 %60, ptr %58, align 8, !tbaa !3
  %61 = getelementptr inbounds nuw i8, ptr %0, i64 16
  %62 = load i64, ptr %61, align 8, !tbaa !16
  %63 = icmp ugt i64 %60, %62
  br i1 %63, label %64, label %._ZN5ArrayIhE3AddEm.exit30_crit_edge

._ZN5ArrayIhE3AddEm.exit30_crit_edge:             ; preds = %57
  %.pre31 = load ptr, ptr %0, align 8, !tbaa !17
  br label %_ZN5ArrayIhE3AddEm.exit30

64:                                               ; preds = %57
  %65 = getelementptr inbounds nuw i8, ptr %0, i64 24
  %66 = load i64, ptr %65, align 8, !tbaa !18
  %.not.i25 = icmp ne i64 %66, 0
  %67 = icmp ugt i64 %60, %66
  %or.cond.i26 = and i1 %.not.i25, %67
  br i1 %or.cond.i26, label %68, label %69

68:                                               ; preds = %64
  tail call void (ptr, ptr, ...) @_ZN12ErrorHandler13GeneralErrMsgEPKwz(ptr noundef nonnull align 4 dereferenceable(14) @ErrHandler, ptr noundef nonnull @.str, i64 noundef %66)
  tail call void @_ZN12ErrorHandler11MemoryErrorEv(ptr noundef nonnull align 4 dereferenceable(14) @ErrHandler)
  %.pre.i28 = load i64, ptr %61, align 8, !tbaa !16
  %.pre10.i29 = load i64, ptr %58, align 8, !tbaa !3
  br label %69

69:                                               ; preds = %68, %64
  %70 = phi i64 [ %.pre10.i29, %68 ], [ %60, %64 ]
  %71 = phi i64 [ %.pre.i28, %68 ], [ %62, %64 ]
  %72 = lshr i64 %71, 2
  %73 = add i64 %71, 32
  %74 = add i64 %73, %72
  %..i27 = tail call i64 @llvm.umax.i64(i64 %70, i64 %74)
  %75 = load ptr, ptr %0, align 8, !tbaa !17
  %76 = tail call ptr @realloc(ptr noundef %75, i64 noundef %..i27) #12
  %77 = icmp eq ptr %76, null
  br i1 %77, label %78, label %79

78:                                               ; preds = %69
  tail call void @_ZN12ErrorHandler11MemoryErrorEv(ptr noundef nonnull align 4 dereferenceable(14) @ErrHandler)
  br label %79

79:                                               ; preds = %78, %69
  store ptr %76, ptr %0, align 8, !tbaa !17
  store i64 %..i27, ptr %61, align 8, !tbaa !16
  br label %_ZN5ArrayIhE3AddEm.exit30

_ZN5ArrayIhE3AddEm.exit30:                        ; preds = %._ZN5ArrayIhE3AddEm.exit30_crit_edge, %79
  %80 = phi ptr [ %.pre31, %._ZN5ArrayIhE3AddEm.exit30_crit_edge ], [ %76, %79 ]
  %81 = getelementptr inbounds nuw i8, ptr %0, i64 32
  %82 = load ptr, ptr %81, align 8, !tbaa !10
  %83 = getelementptr inbounds nuw i8, ptr %0, i64 40
  %84 = load i64, ptr %83, align 8, !tbaa !15
  %85 = getelementptr inbounds nuw i8, ptr %80, i64 %84
  %86 = load ptr, ptr %82, align 8, !tbaa !19
  %87 = getelementptr inbounds nuw i8, ptr %86, i64 32
  %88 = load ptr, ptr %87, align 8
  %89 = tail call noundef i32 %88(ptr noundef nonnull align 8 dereferenceable(8256) %82, ptr noundef nonnull %85, i64 noundef %1)
  %90 = sext i32 %89 to i64
  %91 = load i64, ptr %83, align 8, !tbaa !15
  %92 = add i64 %91, %90
  store i64 %92, ptr %83, align 8, !tbaa !15
  br label %93

93:                                               ; preds = %56, %_ZN5ArrayIhE3AddEm.exit30, %55
  %.1 = phi i64 [ %.0, %55 ], [ %90, %_ZN5ArrayIhE3AddEm.exit30 ], [ 0, %56 ]
  ret i64 %.1
}